target datalayout = "e-m:e-p270:32:32-p271:32:32-p272:64:64-i64:64-f80:128-n8:16:32:64-S128"
target triple = "x86_64-pc-linux-gnu"

@.str = private unnamed_addr constant [3 x i8] c"%d\00", align 1
@.str.1 = private unnamed_addr constant [4 x i8] c"%d,\00", align 1
@.str.2 = private unnamed_addr constant [4 x i8] c"%d\0A\00", align 1

; Function Attrs: noinline nounwind uwtable
define dso_local void @main() #0 {
  %1 = alloca i32, align 4
  %2 = alloca i32, align 4
  %3 = alloca i32, align 4
  %4 = alloca i32, align 4
  %5 = alloca i32, align 4
  %6 = alloca i32, align 4
  %7 = alloca [301 x i32], align 16
  %8 = alloca [300 x i32], align 16
  %9 = alloca [301 x float], align 16
  %10 = alloca float, align 4
  %11 = alloca float, align 4
  store i32 0, i32* %3, align 4
  store i32 0, i32* %4, align 4
  %12 = call i32 (i8*, ...) @__isoc99_scanf(i8* getelementptr inbounds ([3 x i8], [3 x i8]* @.str, i64 0, i64 0), i32* %1)
  store i32 0, i32* %2, align 4
  br label %13

13:                                               ; preds = %28, %0
  %14 = load i32, i32* %2, align 4
  %15 = load i32, i32* %1, align 4
  %16 = icmp slt i32 %14, %15
  br i1 %16, label %17, label %31

17:                                               ; preds = %13
  %18 = load i32, i32* %2, align 4
  %19 = sext i32 %18 to i64
  %20 = getelementptr inbounds [301 x i32], [301 x i32]* %7, i64 0, i64 %19
  %21 = call i32 (i8*, ...) @__isoc99_scanf(i8* getelementptr inbounds ([3 x i8], [3 x i8]* @.str, i64 0, i64 0), i32* %20)
  %22 = load i32, i32* %3, align 4
  %23 = load i32, i32* %2, align 4
  %24 = sext i32 %23 to i64
  %25 = getelementptr inbounds [301 x i32], [301 x i32]* %7, i64 0, i64 %24
  %26 = load i32, i32* %25, align 4
  %27 = add nsw i32 %22, %26
  store i32 %27, i32* %3, align 4
  br label %28

28:                                               ; preds = %17
  %29 = load i32, i32* %2, align 4
  %30 = add nsw i32 %29, 1
  store i32 %30, i32* %2, align 4
  br label %13

31:                                               ; preds = %13
  %32 = load i32, i32* %3, align 4
  %33 = sitofp i32 %32 to float
  %34 = load i32, i32* %1, align 4
  %35 = sitofp i32 %34 to float
  %36 = fdiv float %33, %35
  store float %36, float* %10, align 4
  store i32 0, i32* %2, align 4
  br label %37

37:                                               ; preds = %72, %31
  %38 = load i32, i32* %2, align 4
  %39 = load i32, i32* %1, align 4
  %40 = icmp slt i32 %38, %39
  br i1 %40, label %41, label %75

41:                                               ; preds = %37
  %42 = load i32, i32* %2, align 4
  %43 = sext i32 %42 to i64
  %44 = getelementptr inbounds [301 x i32], [301 x i32]* %7, i64 0, i64 %43
  %45 = load i32, i32* %44, align 4
  %46 = sitofp i32 %45 to float
  %47 = load float, float* %10, align 4
  %48 = fcmp olt float %46, %47
  br i1 %48, label %49, label %60

49:                                               ; preds = %41
  %50 = load float, float* %10, align 4
  %51 = load i32, i32* %2, align 4
  %52 = sext i32 %51 to i64
  %53 = getelementptr inbounds [301 x i32], [301 x i32]* %7, i64 0, i64 %52
  %54 = load i32, i32* %53, align 4
  %55 = sitofp i32 %54 to float
  %56 = fsub float %50, %55
  %57 = load i32, i32* %2, align 4
  %58 = sext i32 %57 to i64
  %59 = getelementptr inbounds [301 x float], [301 x float]* %9, i64 0, i64 %58
  store float %56, float* %59, align 4
  br label %71

60:                                               ; preds = %41
  %61 = load i32, i32* %2, align 4
  %62 = sext i32 %61 to i64
  %63 = getelementptr inbounds [301 x i32], [301 x i32]* %7, i64 0, i64 %62
  %64 = load i32, i32* %63, align 4
  %65 = sitofp i32 %64 to float
  %66 = load float, float* %10, align 4
  %67 = fsub float %65, %66
  %68 = load i32, i32* %2, align 4
  %69 = sext i32 %68 to i64
  %70 = getelementptr inbounds [301 x float], [301 x float]* %9, i64 0, i64 %69
  store float %67, float* %70, align 4
  br label %71

71:                                               ; preds = %60, %49
  br label %72

72:                                               ; preds = %71
  %73 = load i32, i32* %2, align 4
  %74 = add nsw i32 %73, 1
  store i32 %74, i32* %2, align 4
  br label %37

75:                                               ; preds = %37
  %76 = getelementptr inbounds [301 x float], [301 x float]* %9, i64 0, i64 0
  %77 = load float, float* %76, align 16
  store float %77, float* %11, align 4
  store i32 1, i32* %2, align 4
  br label %78

78:                                               ; preds = %95, %75
  %79 = load i32, i32* %2, align 4
  %80 = load i32, i32* %1, align 4
  %81 = icmp slt i32 %79, %80
  br i1 %81, label %82, label %98

82:                                               ; preds = %78
  %83 = load float, float* %11, align 4
  %84 = load i32, i32* %2, align 4
  %85 = sext i32 %84 to i64
  %86 = getelementptr inbounds [301 x float], [301 x float]* %9, i64 0, i64 %85
  %87 = load float, float* %86, align 4
  %88 = fcmp olt float %83, %87
  br i1 %88, label %89, label %94

89:                                               ; preds = %82
  %90 = load i32, i32* %2, align 4
  %91 = sext i32 %90 to i64
  %92 = getelementptr inbounds [301 x float], [301 x float]* %9, i64 0, i64 %91
  %93 = load float, float* %92, align 4
  store float %93, float* %11, align 4
  br label %94

94:                                               ; preds = %89, %82
  br label %95

95:                                               ; preds = %94
  %96 = load i32, i32* %2, align 4
  %97 = add nsw i32 %96, 1
  store i32 %97, i32* %2, align 4
  br label %78

98:                                               ; preds = %78
  store i32 0, i32* %2, align 4
  br label %99

99:                                               ; preds = %121, %98
  %100 = load i32, i32* %2, align 4
  %101 = load i32, i32* %1, align 4
  %102 = icmp slt i32 %100, %101
  br i1 %102, label %103, label %124

103:                                              ; preds = %99
  %104 = load i32, i32* %2, align 4
  %105 = sext i32 %104 to i64
  %106 = getelementptr inbounds [301 x float], [301 x float]* %9, i64 0, i64 %105
  %107 = load float, float* %106, align 4
  %108 = load float, float* %11, align 4
  %109 = fcmp oeq float %107, %108
  br i1 %109, label %110, label %120

110:                                              ; preds = %103
  %111 = load i32, i32* %2, align 4
  %112 = sext i32 %111 to i64
  %113 = getelementptr inbounds [301 x i32], [301 x i32]* %7, i64 0, i64 %112
  %114 = load i32, i32* %113, align 4
  %115 = load i32, i32* %4, align 4
  %116 = sext i32 %115 to i64
  %117 = getelementptr inbounds [300 x i32], [300 x i32]* %8, i64 0, i64 %116
  store i32 %114, i32* %117, align 4
  %118 = load i32, i32* %4, align 4
  %119 = add nsw i32 %118, 1
  store i32 %119, i32* %4, align 4
  br label %120

120:                                              ; preds = %110, %103
  br label %121

121:                                              ; preds = %120
  %122 = load i32, i32* %2, align 4
  %123 = add nsw i32 %122, 1
  store i32 %123, i32* %2, align 4
  br label %99

124:                                              ; preds = %99
  %125 = load i32, i32* %4, align 4
  %126 = icmp eq i32 %125, 1
  br i1 %126, label %127, label %131

127:                                              ; preds = %124
  %128 = getelementptr inbounds [300 x i32], [300 x i32]* %8, i64 0, i64 0
  %129 = load i32, i32* %128, align 16
  %130 = call i32 (i8*, ...) @printf(i8* getelementptr inbounds ([3 x i8], [3 x i8]* @.str, i64 0, i64 0), i32 %129)
  br label %204

131:                                              ; preds = %124
  store i32 1, i32* %6, align 4
  br label %132

132:                                              ; preds = %179, %131
  %133 = load i32, i32* %6, align 4
  %134 = load i32, i32* %4, align 4
  %135 = sub nsw i32 %134, 1
  %136 = icmp sle i32 %133, %135
  br i1 %136, label %137, label %182

137:                                              ; preds = %132
  store i32 0, i32* %2, align 4
  br label %138

138:                                              ; preds = %175, %137
  %139 = load i32, i32* %2, align 4
  %140 = load i32, i32* %4, align 4
  %141 = load i32, i32* %6, align 4
  %142 = sub nsw i32 %140, %141
  %143 = sub nsw i32 %142, 1
  %144 = icmp sle i32 %139, %143
  br i1 %144, label %145, label %178

145:                                              ; preds = %138
  %146 = load i32, i32* %2, align 4
  %147 = sext i32 %146 to i64
  %148 = getelementptr inbounds [300 x i32], [300 x i32]* %8, i64 0, i64 %147
  %149 = load i32, i32* %148, align 4
  %150 = load i32, i32* %2, align 4
  %151 = add nsw i32 %150, 1
  %152 = sext i32 %151 to i64
  %153 = getelementptr inbounds [300 x i32], [300 x i32]* %8, i64 0, i64 %152
  %154 = load i32, i32* %153, align 4
  %155 = icmp sgt i32 %149, %154
  br i1 %155, label %156, label %174

156:                                              ; preds = %145
  %157 = load i32, i32* %2, align 4
  %158 = sext i32 %157 to i64
  %159 = getelementptr inbounds [300 x i32], [300 x i32]* %8, i64 0, i64 %158
  %160 = load i32, i32* %159, align 4
  store i32 %160, i32* %5, align 4
  %161 = load i32, i32* %2, align 4
  %162 = add nsw i32 %161, 1
  %163 = sext i32 %162 to i64
  %164 = getelementptr inbounds [300 x i32], [300 x i32]* %8, i64 0, i64 %163
  %165 = load i32, i32* %164, align 4
  %166 = load i32, i32* %2, align 4
  %167 = sext i32 %166 to i64
  %168 = getelementptr inbounds [300 x i32], [300 x i32]* %8, i64 0, i64 %167
  store i32 %165, i32* %168, align 4
  %169 = load i32, i32* %5, align 4
  %170 = load i32, i32* %2, align 4
  %171 = add nsw i32 %170, 1
  %172 = sext i32 %171 to i64
  %173 = getelementptr inbounds [300 x i32], [300 x i32]* %8, i64 0, i64 %172
  store i32 %169, i32* %173, align 4
  br label %174

174:                                              ; preds = %156, %145
  br label %175

175:                                              ; preds = %174
  %176 = load i32, i32* %2, align 4
  %177 = add nsw i32 %176, 1
  store i32 %177, i32* %2, align 4
  br label %138

178:                                              ; preds = %138
  br label %179

179:                                              ; preds = %178
  %180 = load i32, i32* %6, align 4
  %181 = add nsw i32 %180, 1
  store i32 %181, i32* %6, align 4
  br label %132

182:                                              ; preds = %132
  store i32 0, i32* %2, align 4
  br label %183

183:                                              ; preds = %194, %182
  %184 = load i32, i32* %2, align 4
  %185 = load i32, i32* %4, align 4
  %186 = sub nsw i32 %185, 2
  %187 = icmp sle i32 %184, %186
  br i1 %187, label %188, label %197

188:                                              ; preds = %183
  %189 = load i32, i32* %2, align 4
  %190 = sext i32 %189 to i64
  %191 = getelementptr inbounds [300 x i32], [300 x i32]* %8, i64 0, i64 %190
  %192 = load i32, i32* %191, align 4
  %193 = call i32 (i8*, ...) @printf(i8* getelementptr inbounds ([4 x i8], [4 x i8]* @.str.1, i64 0, i64 0), i32 %192)
  br label %194

194:                                              ; preds = %188
  %195 = load i32, i32* %2, align 4
  %196 = add nsw i32 %195, 1
  store i32 %196, i32* %2, align 4
  br label %183

197:                                              ; preds = %183
  %198 = load i32, i32* %4, align 4
  %199 = sub nsw i32 %198, 1
  %200 = sext i32 %199 to i64
  %201 = getelementptr inbounds [300 x i32], [300 x i32]* %8, i64 0, i64 %200
  %202 = load i32, i32* %201, align 4
  %203 = call i32 (i8*, ...) @printf(i8* getelementptr inbounds ([4 x i8], [4 x i8]* @.str.2, i64 0, i64 0), i32 %202)
  br label %204

204:                                              ; preds = %197, %127
  ret void
}